; Function Attrs: mustprogress nounwind uwtable
define dso_local void @_ZN4absl12NotificationD2Ev(ptr noundef nonnull align 8 dereferenceable(9) %0) unnamed_addr #2 align 2 personality ptr @__gxx_personality_v0 {
  invoke void @_ZN4absl5Mutex4LockEv(ptr noundef nonnull align 8 dereferenceable(8) %0)
          to label %_ZN4absl9MutexLockC2EPNS_5MutexE.exit unwind label %5

_ZN4absl9MutexLockC2EPNS_5MutexE.exit:            ; preds = %1
  invoke void @_ZN4absl5Mutex6UnlockEv(ptr noundef nonnull align 8 dereferenceable(8) %0)
          to label %_ZN4absl9MutexLockD2Ev.exit unwind label %2

2:                                                ; preds = %_ZN4absl9MutexLockC2EPNS_5MutexE.exit
  %3 = landingpad { ptr, i32 }
          catch ptr null
  %4 = extractvalue { ptr, i32 } %3, 0
  tail call void @__clang_call_terminate(ptr %4) #7
  unreachable

_ZN4absl9MutexLockD2Ev.exit:                      ; preds = %_ZN4absl9MutexLockC2EPNS_5MutexE.exit
  ret void

5:                                                ; preds = %1
  %6 = landingpad { ptr, i32 }
          catch ptr null
  %7 = extractvalue { ptr, i32 } %6, 0
  tail call void @__clang_call_terminate(ptr %7) #7
  unreachable
}